; Function Attrs: mustprogress uwtable
define noundef nonnull align 8 dereferenceable(16) ptr @_ZN2cv9SparseMataSERKNS_3MatE(ptr noundef nonnull returned align 8 dereferenceable(16) %0, ptr noundef nonnull align 8 dereferenceable(96) %1) local_unnamed_addr #0 align 2 personality ptr @__gxx_personality_v0 {
  %3 = alloca %"class.cv::SparseMat", align 8
  call void @llvm.lifetime.start.p0(i64 16, ptr nonnull %3) #26
  call void @_ZN2cv9SparseMatC1ERKNS_3MatE(ptr noundef nonnull align 8 dereferenceable(16) %3, ptr noundef nonnull align 8 dereferenceable(96) %1)
  %.not.i = icmp eq ptr %0, %3
  br i1 %.not.i, label %_ZN2cv9SparseMataSERKS0_.exit, label %4

4:                                                ; preds = %2
  %5 = getelementptr inbounds nuw i8, ptr %3, i64 8
  %6 = load ptr, ptr %5, align 8, !tbaa !36
  %.not8.i = icmp eq ptr %6, null
  br i1 %.not8.i, label %9, label %7

7:                                                ; preds = %4
  %8 = atomicrmw add ptr %6, i32 1 acq_rel, align 8
  br label %9

9:                                                ; preds = %7, %4
  %10 = getelementptr inbounds nuw i8, ptr %0, i64 8
  %11 = load ptr, ptr %10, align 8, !tbaa !36
  %.not.i.i = icmp eq ptr %11, null
  br i1 %.not.i.i, label %_ZN2cv9SparseMat7releaseEv.exit.i, label %12

12:                                               ; preds = %9
  %13 = atomicrmw add ptr %11, i32 -1 acq_rel, align 8
  %14 = icmp eq i32 %13, 1
  br i1 %14, label %15, label %_ZN2cv9SparseMat7releaseEv.exit.i

15:                                               ; preds = %12
  %16 = load ptr, ptr %10, align 8, !tbaa !36
  %17 = icmp eq ptr %16, null
  br i1 %17, label %_ZN2cv9SparseMat7releaseEv.exit.i, label %18

18:                                               ; preds = %15
  %19 = getelementptr inbounds nuw i8, ptr %16, i64 64
  %20 = load ptr, ptr %19, align 8, !tbaa !26
  %.not.i.i.i.i.i.i = icmp eq ptr %20, null
  br i1 %.not.i.i.i.i.i.i, label %_ZNSt6vectorImSaImEED2Ev.exit.i.i.i, label %21

21:                                               ; preds = %18
  call void @_ZdlPv(ptr noundef nonnull %20) #24
  br label %_ZNSt6vectorImSaImEED2Ev.exit.i.i.i

_ZNSt6vectorImSaImEED2Ev.exit.i.i.i:              ; preds = %21, %18
  %22 = getelementptr inbounds nuw i8, ptr %16, i64 40
  %23 = load ptr, ptr %22, align 8, !tbaa !29
  %.not.i.i.i1.i.i.i = icmp eq ptr %23, null
  br i1 %.not.i.i.i1.i.i.i, label %_ZN2cv9SparseMat3HdrD2Ev.exit.i.i, label %24

24:                                               ; preds = %_ZNSt6vectorImSaImEED2Ev.exit.i.i.i
  call void @_ZdlPv(ptr noundef nonnull %23) #24
  br label %_ZN2cv9SparseMat3HdrD2Ev.exit.i.i

_ZN2cv9SparseMat3HdrD2Ev.exit.i.i:                ; preds = %24, %_ZNSt6vectorImSaImEED2Ev.exit.i.i.i
  call void @_ZdlPv(ptr noundef nonnull %16) #24
  br label %_ZN2cv9SparseMat7releaseEv.exit.i

_ZN2cv9SparseMat7releaseEv.exit.i:                ; preds = %_ZN2cv9SparseMat3HdrD2Ev.exit.i.i, %15, %12, %9
  %25 = load i32, ptr %3, align 8, !tbaa !33
  store i32 %25, ptr %0, align 8, !tbaa !33
  %26 = load ptr, ptr %5, align 8, !tbaa !36
  store ptr %26, ptr %10, align 8, !tbaa !36
  br label %_ZN2cv9SparseMataSERKS0_.exit

_ZN2cv9SparseMataSERKS0_.exit:                    ; preds = %_ZN2cv9SparseMat7releaseEv.exit.i, %2
  call void @_ZN2cv9SparseMatD1Ev(ptr noundef nonnull align 8 dereferenceable(16) %3) #26
  call void @llvm.lifetime.end.p0(i64 16, ptr nonnull %3) #26
  ret ptr %0
}